; Function Attrs: nounwind sspstrong uwtable
define internal fastcc noalias nonnull ptr @pm_alias_global_variable_node_create(ptr noundef captures(none) %0, ptr %.8.val, ptr %.16.val, ptr noundef nonnull %1, ptr noundef nonnull %2) unnamed_addr #1 {
  %4 = tail call noalias dereferenceable_or_null(56) ptr @calloc(i64 noundef 1, i64 noundef 56) #34
  %5 = icmp eq ptr %4, null
  br i1 %5, label %6, label %pm_node_alloc.exit

6:                                                ; preds = %3
  %7 = load ptr, ptr @stderr, align 8, !tbaa !105
  %8 = tail call i32 (ptr, i32, ptr, ...) @__fprintf_chk(ptr noundef %7, i32 noundef 1, ptr noundef nonnull @.str.94, i32 noundef 56) #31
  tail call void @abort() #35
  unreachable

pm_node_alloc.exit:                               ; preds = %3
  %9 = load i32, ptr %0, align 8, !tbaa !107
  %10 = add i32 %9, 1
  store i32 %10, ptr %0, align 8, !tbaa !107
  %11 = getelementptr inbounds nuw i8, ptr %2, i64 16
  %12 = load ptr, ptr %11, align 8, !tbaa !132
  store i16 1, ptr %4, align 8, !tbaa !108
  %.sroa.3.0..sroa_idx = getelementptr inbounds nuw i8, ptr %4, i64 4
  store i32 %10, ptr %.sroa.3.0..sroa_idx, align 4, !tbaa !7
  %.sroa.4.0..sroa_idx = getelementptr inbounds nuw i8, ptr %4, i64 8
  store ptr %.8.val, ptr %.sroa.4.0..sroa_idx, align 8, !tbaa !14
  %.sroa.5.0..sroa_idx = getelementptr inbounds nuw i8, ptr %4, i64 16
  store ptr %12, ptr %.sroa.5.0..sroa_idx, align 8, !tbaa !14
  %.sroa.6.0..sroa_idx = getelementptr inbounds nuw i8, ptr %4, i64 24
  store ptr %1, ptr %.sroa.6.0..sroa_idx, align 8, !tbaa !103
  %.sroa.7.0..sroa_idx = getelementptr inbounds nuw i8, ptr %4, i64 32
  store ptr %2, ptr %.sroa.7.0..sroa_idx, align 8, !tbaa !103
  %.sroa.8.0..sroa_idx = getelementptr inbounds nuw i8, ptr %4, i64 40
  store ptr %.8.val, ptr %.sroa.8.0..sroa_idx, align 8, !tbaa !14
  %.sroa.9.0..sroa_idx = getelementptr inbounds nuw i8, ptr %4, i64 48
  store ptr %.16.val, ptr %.sroa.9.0..sroa_idx, align 8, !tbaa !14
  ret ptr %4
}